target datalayout = "e-m:e-p270:32:32-p271:32:32-p272:64:64-i64:64-i128:128-f80:128-n8:16:32:64-S128"
target triple = "x86_64-pc-linux-gnu"

%struct.Vec_Ptr_t_ = type { i32, i32, ptr }
%struct.Vec_Vec_t_ = type { i32, i32, ptr }

; Function Attrs: nounwind uwtable
define internal void @Vec_PtrPush(ptr noundef %0, ptr noundef %1) #0 {
  %3 = alloca ptr, align 8
  %4 = alloca ptr, align 8
  store ptr %0, ptr %3, align 8
  store ptr %1, ptr %4, align 8
  %5 = load ptr, ptr %3, align 8
  %6 = getelementptr inbounds %struct.Vec_Ptr_t_, ptr %5, i32 0, i32 1
  %7 = load i32, ptr %6, align 4
  %8 = load ptr, ptr %3, align 8
  %9 = getelementptr inbounds %struct.Vec_Ptr_t_, ptr %8, i32 0, i32 0
  %10 = load i32, ptr %9, align 8
  %11 = icmp eq i32 %7, %10
  br i1 %11, label %12, label %26

12:                                               ; preds = %2
  %13 = load ptr, ptr %3, align 8
  %14 = getelementptr inbounds %struct.Vec_Ptr_t_, ptr %13, i32 0, i32 0
  %15 = load i32, ptr %14, align 8
  %16 = icmp slt i32 %15, 16
  br i1 %16, label %17, label %19

17:                                               ; preds = %12
  %18 = load ptr, ptr %3, align 8
  call void @Vec_PtrGrow(ptr noundef %18, i32 noundef 16)
  br label %25

19:                                               ; preds = %12
  %20 = load ptr, ptr %3, align 8
  %21 = load ptr, ptr %3, align 8
  %22 = getelementptr inbounds %struct.Vec_Ptr_t_, ptr %21, i32 0, i32 0
  %23 = load i32, ptr %22, align 8
  %24 = mul nsw i32 2, %23
  call void @Vec_PtrGrow(ptr noundef %20, i32 noundef %24)
  br label %25

25:                                               ; preds = %19, %17
  br label %26

26:                                               ; preds = %25, %2
  %27 = load ptr, ptr %4, align 8
  %28 = load ptr, ptr %3, align 8
  %29 = getelementptr inbounds %struct.Vec_Ptr_t_, ptr %28, i32 0, i32 2
  %30 = load ptr, ptr %29, align 8
  %31 = load ptr, ptr %3, align 8
  %32 = getelementptr inbounds %struct.Vec_Ptr_t_, ptr %31, i32 0, i32 1
  %33 = load i32, ptr %32, align 4
  %34 = add nsw i32 %33, 1
  store i32 %34, ptr %32, align 4
  %35 = sext i32 %33 to i64
  %36 = getelementptr inbounds ptr, ptr %30, i64 %35
  store ptr %27, ptr %36, align 8
  ret void
}

; Function Attrs: nounwind uwtable
define internal ptr @Vec_VecEntry(ptr noundef %0, i32 noundef %1) #0 {
  %3 = alloca ptr, align 8
  %4 = alloca i32, align 4
  store ptr %0, ptr %3, align 8
  store i32 %1, ptr %4, align 4
  %5 = load ptr, ptr %3, align 8
  %6 = getelementptr inbounds %struct.Vec_Vec_t_, ptr %5, i32 0, i32 2
  %7 = load ptr, ptr %6, align 8
  %8 = load i32, ptr %4, align 4
  %9 = sext i32 %8 to i64
  %10 = getelementptr inbounds ptr, ptr %7, i64 %9
  %11 = load ptr, ptr %10, align 8
  ret ptr %11
}

; Function Attrs: nounwind uwtable
define internal ptr @Vec_PtrAlloc(i32 noundef %0) #0 {
  %2 = alloca i32, align 4
  %3 = alloca ptr, align 8
  store i32 %0, ptr %2, align 4
  %4 = call noalias ptr @malloc(i64 noundef 16) #6
  store ptr %4, ptr %3, align 8
  %5 = load i32, ptr %2, align 4
  %6 = icmp sgt i32 %5, 0
  br i1 %6, label %7, label %11

7:                                                ; preds = %1
  %8 = load i32, ptr %2, align 4
  %9 = icmp slt i32 %8, 8
  br i1 %9, label %10, label %11

10:                                               ; preds = %7
  store i32 8, ptr %2, align 4
  br label %11

11:                                               ; preds = %10, %7, %1
  %12 = load ptr, ptr %3, align 8
  %13 = getelementptr inbounds %struct.Vec_Ptr_t_, ptr %12, i32 0, i32 1
  store i32 0, ptr %13, align 4
  %14 = load i32, ptr %2, align 4
  %15 = load ptr, ptr %3, align 8
  %16 = getelementptr inbounds %struct.Vec_Ptr_t_, ptr %15, i32 0, i32 0
  store i32 %14, ptr %16, align 8
  %17 = load ptr, ptr %3, align 8
  %18 = getelementptr inbounds %struct.Vec_Ptr_t_, ptr %17, i32 0, i32 0
  %19 = load i32, ptr %18, align 8
  %20 = icmp ne i32 %19, 0
  br i1 %20, label %21, label %28

21:                                               ; preds = %11
  %22 = load ptr, ptr %3, align 8
  %23 = getelementptr inbounds %struct.Vec_Ptr_t_, ptr %22, i32 0, i32 0
  %24 = load i32, ptr %23, align 8
  %25 = sext i32 %24 to i64
  %26 = mul i64 8, %25
  %27 = call noalias ptr @malloc(i64 noundef %26) #6
  br label %29

28:                                               ; preds = %11
  br label %29

29:                                               ; preds = %28, %21
  %30 = phi ptr [ %27, %21 ], [ null, %28 ]
  %31 = load ptr, ptr %3, align 8
  %32 = getelementptr inbounds %struct.Vec_Ptr_t_, ptr %31, i32 0, i32 2
  store ptr %30, ptr %32, align 8
  %33 = load ptr, ptr %3, align 8
  ret ptr %33
}

; Function Attrs: nounwind uwtable
define internal void @Vec_PtrGrow(ptr noundef %0, i32 noundef %1) #0 {
  %3 = alloca ptr, align 8
  %4 = alloca i32, align 4
  store ptr %0, ptr %3, align 8
  store i32 %1, ptr %4, align 4
  %5 = load ptr, ptr %3, align 8
  %6 = getelementptr inbounds %struct.Vec_Ptr_t_, ptr %5, i32 0, i32 0
  %7 = load i32, ptr %6, align 8
  %8 = load i32, ptr %4, align 4
  %9 = icmp sge i32 %7, %8
  br i1 %9, label %10, label %11

10:                                               ; preds = %2
  br label %36

11:                                               ; preds = %2
  %12 = load ptr, ptr %3, align 8
  %13 = getelementptr inbounds %struct.Vec_Ptr_t_, ptr %12, i32 0, i32 2
  %14 = load ptr, ptr %13, align 8
  %15 = icmp ne ptr %14, null
  br i1 %15, label %16, label %24

16:                                               ; preds = %11
  %17 = load ptr, ptr %3, align 8
  %18 = getelementptr inbounds %struct.Vec_Ptr_t_, ptr %17, i32 0, i32 2
  %19 = load ptr, ptr %18, align 8
  %20 = load i32, ptr %4, align 4
  %21 = sext i32 %20 to i64
  %22 = mul i64 8, %21
  %23 = call ptr @realloc(ptr noundef %19, i64 noundef %22) #8
  br label %29

24:                                               ; preds = %11
  %25 = load i32, ptr %4, align 4
  %26 = sext i32 %25 to i64
  %27 = mul i64 8, %26
  %28 = call noalias ptr @malloc(i64 noundef %27) #6
  br label %29

29:                                               ; preds = %24, %16
  %30 = phi ptr [ %23, %16 ], [ %28, %24 ]
  %31 = load ptr, ptr %3, align 8
  %32 = getelementptr inbounds %struct.Vec_Ptr_t_, ptr %31, i32 0, i32 2
  store ptr %30, ptr %32, align 8
  %33 = load i32, ptr %4, align 4
  %34 = load ptr, ptr %3, align 8
  %35 = getelementptr inbounds %struct.Vec_Ptr_t_, ptr %34, i32 0, i32 0
  store i32 %33, ptr %35, align 8
  br label %36

36:                                               ; preds = %29, %10
  ret void
}

; Function Attrs: nounwind uwtable
define internal void @Vec_VecPush(ptr noundef %0, i32 noundef %1, ptr noundef %2) #0 {
  %4 = alloca ptr, align 8
  %5 = alloca i32, align 4
  %6 = alloca ptr, align 8
  %7 = alloca i32, align 4
  store ptr %0, ptr %4, align 8
  store i32 %1, ptr %5, align 4
  store ptr %2, ptr %6, align 8
  %8 = load ptr, ptr %4, align 8
  %9 = getelementptr inbounds %struct.Vec_Vec_t_, ptr %8, i32 0, i32 1
  %10 = load i32, ptr %9, align 4
  %11 = load i32, ptr %5, align 4
  %12 = add nsw i32 %11, 1
  %13 = icmp slt i32 %10, %12
  br i1 %13, label %14, label %42

14:                                               ; preds = %3
  %15 = load ptr, ptr %4, align 8
  %16 = load i32, ptr %5, align 4
  %17 = add nsw i32 %16, 1
  call void @Vec_PtrGrow(ptr noundef %15, i32 noundef %17)
  %18 = load ptr, ptr %4, align 8
  %19 = getelementptr inbounds %struct.Vec_Vec_t_, ptr %18, i32 0, i32 1
  %20 = load i32, ptr %19, align 4
  store i32 %20, ptr %7, align 4
  br label %21

21:                                               ; preds = %34, %14
  %22 = load i32, ptr %7, align 4
  %23 = load i32, ptr %5, align 4
  %24 = add nsw i32 %23, 1
  %25 = icmp slt i32 %22, %24
  br i1 %25, label %26, label %37

26:                                               ; preds = %21
  %27 = call ptr @Vec_PtrAlloc(i32 noundef 0)
  %28 = load ptr, ptr %4, align 8
  %29 = getelementptr inbounds %struct.Vec_Vec_t_, ptr %28, i32 0, i32 2
  %30 = load ptr, ptr %29, align 8
  %31 = load i32, ptr %7, align 4
  %32 = sext i32 %31 to i64
  %33 = getelementptr inbounds ptr, ptr %30, i64 %32
  store ptr %27, ptr %33, align 8
  br label %34

34:                                               ; preds = %26
  %35 = load i32, ptr %7, align 4
  %36 = add nsw i32 %35, 1
  store i32 %36, ptr %7, align 4
  br label %21, !llvm.loop !54

37:                                               ; preds = %21
  %38 = load i32, ptr %5, align 4
  %39 = add nsw i32 %38, 1
  %40 = load ptr, ptr %4, align 8
  %41 = getelementptr inbounds %struct.Vec_Vec_t_, ptr %40, i32 0, i32 1
  store i32 %39, ptr %41, align 4
  br label %42

42:                                               ; preds = %37, %3
  %43 = load ptr, ptr %4, align 8
  %44 = load i32, ptr %5, align 4
  %45 = call ptr @Vec_VecEntry(ptr noundef %43, i32 noundef %44)
  %46 = load ptr, ptr %6, align 8
  call void @Vec_PtrPush(ptr noundef %45, ptr noundef %46)
  ret void
}